target datalayout = "e-m:e-p270:32:32-p271:32:32-p272:64:64-i64:64-i128:128-f80:128-n8:16:32:64-S128"
target triple = "x86_64-pc-linux-gnu"

%struct.AVBufferRef = type { ptr, ptr, i64 }
%struct.AVFrame = type { [8 x ptr], [8 x i32], ptr, i32, i32, i32, i32, i32, %struct.AVRational, i64, i64, %struct.AVRational, i32, ptr, i32, i32, [8 x ptr], ptr, i32, ptr, i32, i32, i32, i32, i32, i32, i32, i64, ptr, i32, ptr, ptr, i64, i64, i64, i64, ptr, %struct.AVChannelLayout, i64 }
%struct.AVRational = type { i32, i32 }
%struct.AVChannelLayout = type { i32, i32, %union.anon, ptr }
%union.anon = type { i64 }
%struct.HWMapDescriptor = type { ptr, ptr, ptr, ptr }

; Function Attrs: nounwind uwtable
define i32 @ff_hwframe_map_replace(ptr noundef %0, ptr noundef %1) #0 {
  %3 = alloca ptr, align 8
  %4 = alloca ptr, align 8
  %5 = alloca ptr, align 8
  store ptr %0, ptr %3, align 8, !tbaa !71
  store ptr %1, ptr %4, align 8, !tbaa !71
  call void @llvm.lifetime.start.p0(i64 8, ptr %5) #5
  %6 = load ptr, ptr %3, align 8, !tbaa !71
  %7 = getelementptr inbounds nuw %struct.AVFrame, ptr %6, i32 0, i32 16
  %8 = getelementptr inbounds [8 x ptr], ptr %7, i64 0, i64 0
  %9 = load ptr, ptr %8, align 8, !tbaa !28
  %10 = getelementptr inbounds nuw %struct.AVBufferRef, ptr %9, i32 0, i32 1
  %11 = load ptr, ptr %10, align 8, !tbaa !37
  store ptr %11, ptr %5, align 8, !tbaa !95
  %12 = load ptr, ptr %5, align 8, !tbaa !95
  %13 = getelementptr inbounds nuw %struct.HWMapDescriptor, ptr %12, i32 0, i32 0
  %14 = load ptr, ptr %13, align 8, !tbaa !97
  %15 = load ptr, ptr %4, align 8, !tbaa !71
  %16 = call i32 @av_frame_replace(ptr noundef %14, ptr noundef %15)
  call void @llvm.lifetime.end.p0(i64 8, ptr %5) #5
  ret i32 %16
}