; Function Attrs: nounwind uwtable
define i32 @ff_hwframe_map_replace(ptr noundef readonly captures(none) %0, ptr noundef %1) local_unnamed_addr #5 {
  %3 = getelementptr inbounds nuw i8, ptr %0, i64 184
  %4 = load ptr, ptr %3, align 8, !tbaa !36
  %5 = getelementptr inbounds nuw i8, ptr %4, i64 8
  %6 = load ptr, ptr %5, align 8, !tbaa !32
  %7 = load ptr, ptr %6, align 8, !tbaa !90
  %8 = tail call i32 @av_frame_replace(ptr noundef %7, ptr noundef %1) #11
  ret i32 %8
}